target datalayout = "e-m:e-p270:32:32-p271:32:32-p272:64:64-i64:64-i128:128-f80:128-n8:16:32:64-S128"
target triple = "x86_64-pc-linux-gnu"

%struct.GinVacuumState = type { ptr, ptr, ptr, ptr, %struct.GinState, ptr, ptr }
%struct.GinState = type { ptr, i8, ptr, [32 x ptr], [32 x %struct.FmgrInfo], [32 x %struct.FmgrInfo], [32 x %struct.FmgrInfo], [32 x %struct.FmgrInfo], [32 x %struct.FmgrInfo], [32 x %struct.FmgrInfo], [32 x i8], [32 x i32] }
%struct.FmgrInfo = type { ptr, i32, i16, i8, i8, i8, ptr, ptr, ptr }
%struct.ItemPointerData = type { %struct.BlockIdData, i16 }
%struct.BlockIdData = type { i16, i16 }
%struct.IndexBulkDeleteResult = type { i32, i8, double, double, i32, i32, i32 }

; Function Attrs: nounwind uwtable
define dso_local ptr @ginVacuumItemPointers(ptr noundef %0, ptr noundef %1, i32 noundef %2, ptr noundef %3) #0 {
  %5 = alloca ptr, align 8
  %6 = alloca ptr, align 8
  %7 = alloca i32, align 4
  %8 = alloca ptr, align 8
  %9 = alloca i32, align 4
  %10 = alloca i32, align 4
  %11 = alloca ptr, align 8
  store ptr %0, ptr %5, align 8
  store ptr %1, ptr %6, align 8
  store i32 %2, ptr %7, align 4
  store ptr %3, ptr %8, align 8
  call void @llvm.lifetime.start.p0(i64 4, ptr %9) #7
  call void @llvm.lifetime.start.p0(i64 4, ptr %10) #7
  store i32 0, ptr %10, align 4
  call void @llvm.lifetime.start.p0(i64 8, ptr %11) #7
  store ptr null, ptr %11, align 8
  store i32 0, ptr %9, align 4
  br label %12

12:                                               ; preds = %70, %4
  %13 = load i32, ptr %9, align 4
  %14 = load i32, ptr %7, align 4
  %15 = icmp slt i32 %13, %14
  br i1 %15, label %16, label %73

16:                                               ; preds = %12
  %17 = load ptr, ptr %5, align 8
  %18 = getelementptr inbounds nuw %struct.GinVacuumState, ptr %17, i32 0, i32 2
  %19 = load ptr, ptr %18, align 8
  %20 = load ptr, ptr %6, align 8
  %21 = load i32, ptr %9, align 4
  %22 = sext i32 %21 to i64
  %23 = getelementptr inbounds %struct.ItemPointerData, ptr %20, i64 %22
  %24 = load ptr, ptr %5, align 8
  %25 = getelementptr inbounds nuw %struct.GinVacuumState, ptr %24, i32 0, i32 3
  %26 = load ptr, ptr %25, align 8
  %27 = call zeroext i1 %19(ptr noundef %23, ptr noundef %26)
  br i1 %27, label %28, label %48

28:                                               ; preds = %16
  %29 = load ptr, ptr %5, align 8
  %30 = getelementptr inbounds nuw %struct.GinVacuumState, ptr %29, i32 0, i32 1
  %31 = load ptr, ptr %30, align 8
  %32 = getelementptr inbounds nuw %struct.IndexBulkDeleteResult, ptr %31, i32 0, i32 3
  %33 = load double, ptr %32, align 8
  %34 = fadd double %33, 1.000000e+00
  store double %34, ptr %32, align 8
  %35 = load ptr, ptr %11, align 8
  %36 = icmp ne ptr %35, null
  br i1 %36, label %47, label %37

37:                                               ; preds = %28
  %38 = load i32, ptr %7, align 4
  %39 = sext i32 %38 to i64
  %40 = mul i64 6, %39
  %41 = call ptr @palloc(i64 noundef %40)
  store ptr %41, ptr %11, align 8
  %42 = load ptr, ptr %11, align 8
  %43 = load ptr, ptr %6, align 8
  %44 = load i32, ptr %9, align 4
  %45 = sext i32 %44 to i64
  %46 = mul i64 6, %45
  call void @llvm.memcpy.p0.p0.i64(ptr align 2 %42, ptr align 2 %43, i64 %46, i1 false)
  br label %47

47:                                               ; preds = %37, %28
  br label %69

48:                                               ; preds = %16
  %49 = load ptr, ptr %5, align 8
  %50 = getelementptr inbounds nuw %struct.GinVacuumState, ptr %49, i32 0, i32 1
  %51 = load ptr, ptr %50, align 8
  %52 = getelementptr inbounds nuw %struct.IndexBulkDeleteResult, ptr %51, i32 0, i32 2
  %53 = load double, ptr %52, align 8
  %54 = fadd double %53, 1.000000e+00
  store double %54, ptr %52, align 8
  %55 = load ptr, ptr %11, align 8
  %56 = icmp ne ptr %55, null
  br i1 %56, label %57, label %66

57:                                               ; preds = %48
  %58 = load ptr, ptr %11, align 8
  %59 = load i32, ptr %10, align 4
  %60 = sext i32 %59 to i64
  %61 = getelementptr inbounds %struct.ItemPointerData, ptr %58, i64 %60
  %62 = load ptr, ptr %6, align 8
  %63 = load i32, ptr %9, align 4
  %64 = sext i32 %63 to i64
  %65 = getelementptr inbounds %struct.ItemPointerData, ptr %62, i64 %64
  call void @llvm.memcpy.p0.p0.i64(ptr align 2 %61, ptr align 2 %65, i64 6, i1 false)
  br label %66

66:                                               ; preds = %57, %48
  %67 = load i32, ptr %10, align 4
  %68 = add i32 %67, 1
  store i32 %68, ptr %10, align 4
  br label %69

69:                                               ; preds = %66, %47
  br label %70

70:                                               ; preds = %69
  %71 = load i32, ptr %9, align 4
  %72 = add i32 %71, 1
  store i32 %72, ptr %9, align 4
  br label %12, !llvm.loop !4

73:                                               ; preds = %12
  %74 = load i32, ptr %10, align 4
  %75 = load ptr, ptr %8, align 8
  store i32 %74, ptr %75, align 4
  %76 = load ptr, ptr %11, align 8
  call void @llvm.lifetime.end.p0(i64 8, ptr %11) #7
  call void @llvm.lifetime.end.p0(i64 4, ptr %10) #7
  call void @llvm.lifetime.end.p0(i64 4, ptr %9) #7
  ret ptr %76
}