; Function Attrs: nounwind uwtable
define dso_local ptr @ginVacuumItemPointers(ptr noundef readonly captures(none) %0, ptr noundef %1, i32 noundef %2, ptr noundef writeonly captures(none) %3) local_unnamed_addr #0 {
  %5 = icmp sgt i32 %2, 0
  br i1 %5, label %.lr.ph, label %._crit_edge

.lr.ph:                                           ; preds = %4
  %6 = getelementptr inbounds nuw i8, ptr %0, i64 16
  %7 = getelementptr inbounds nuw i8, ptr %0, i64 24
  %8 = getelementptr inbounds nuw i8, ptr %0, i64 8
  %9 = zext nneg i32 %2 to i64
  %10 = mul nuw nsw i64 %9, 6
  br label %11

11:                                               ; preds = %.lr.ph, %33
  %indvars.iv = phi i64 [ 0, %.lr.ph ], [ %indvars.iv.next, %33 ]
  %.029 = phi ptr [ null, %.lr.ph ], [ %.1, %33 ]
  %.02228 = phi i32 [ 0, %.lr.ph ], [ %.123, %33 ]
  %12 = load ptr, ptr %6, align 8
  %13 = getelementptr inbounds nuw %struct.ItemPointerData, ptr %1, i64 %indvars.iv
  %14 = load ptr, ptr %7, align 8
  %15 = tail call zeroext i1 %12(ptr noundef %13, ptr noundef %14) #7
  %16 = load ptr, ptr %8, align 8
  %.not26 = icmp eq ptr %.029, null
  br i1 %15, label %17, label %24

17:                                               ; preds = %11
  %18 = getelementptr inbounds nuw i8, ptr %16, i64 16
  %19 = load double, ptr %18, align 8
  %20 = fadd double %19, 1.000000e+00
  store double %20, ptr %18, align 8
  br i1 %.not26, label %21, label %33

21:                                               ; preds = %17
  %22 = tail call ptr @palloc(i64 noundef %10) #7
  %23 = mul nuw nsw i64 %indvars.iv, 6
  tail call void @llvm.memcpy.p0.p0.i64(ptr align 2 %22, ptr align 2 %1, i64 %23, i1 false)
  br label %33

24:                                               ; preds = %11
  %25 = getelementptr inbounds nuw i8, ptr %16, i64 8
  %26 = load double, ptr %25, align 8
  %27 = fadd double %26, 1.000000e+00
  store double %27, ptr %25, align 8
  br i1 %.not26, label %31, label %28

28:                                               ; preds = %24
  %29 = sext i32 %.02228 to i64
  %30 = getelementptr inbounds %struct.ItemPointerData, ptr %.029, i64 %29
  tail call void @llvm.memcpy.p0.p0.i64(ptr noundef nonnull align 2 dereferenceable(6) %30, ptr noundef nonnull align 2 dereferenceable(6) %13, i64 6, i1 false)
  br label %31

31:                                               ; preds = %28, %24
  %32 = add i32 %.02228, 1
  br label %33

33:                                               ; preds = %31, %21, %17
  %.123 = phi i32 [ %.02228, %17 ], [ %.02228, %21 ], [ %32, %31 ]
  %.1 = phi ptr [ %.029, %17 ], [ %22, %21 ], [ %.029, %31 ]
  %indvars.iv.next = add nuw nsw i64 %indvars.iv, 1
  %exitcond.not = icmp eq i64 %indvars.iv.next, %9
  br i1 %exitcond.not, label %._crit_edge, label %11, !llvm.loop !4

._crit_edge:                                      ; preds = %33, %4
  %.022.lcssa = phi i32 [ 0, %4 ], [ %.123, %33 ]
  %.0.lcssa = phi ptr [ null, %4 ], [ %.1, %33 ]
  store i32 %.022.lcssa, ptr %3, align 4
  ret ptr %.0.lcssa
}